target datalayout = "e-m:e-p270:32:32-p271:32:32-p272:64:64-i64:64-i128:128-f80:128-n8:16:32:64-S128"
target triple = "x86_64-pc-linux-gnu"

%class.G1FreeIdSet = type { %class.Semaphore, ptr, i32, i32, i64, i64 }
%class.Semaphore = type { %class.PosixSemaphore }
%class.PosixSemaphore = type { %union.sem_t }
%union.sem_t = type { i64, [24 x i8] }

; Function Attrs: mustprogress nounwind uwtable
define hidden noundef i64 @_ZNK11G1FreeIdSet9make_headEjm(ptr noundef nonnull align 8 dereferenceable(64) %0, i32 noundef %1, i64 noundef %2) #1 align 2 {
  %4 = alloca ptr, align 8
  %5 = alloca i32, align 4
  %6 = alloca i64, align 8
  store ptr %0, ptr %4, align 8
  store i32 %1, ptr %5, align 4
  store i64 %2, ptr %6, align 8
  %7 = load ptr, ptr %4, align 8
  %8 = load i32, ptr %5, align 4
  %9 = zext i32 %8 to i64
  %10 = load i64, ptr %6, align 8
  %11 = getelementptr inbounds %class.G1FreeIdSet, ptr %7, i32 0, i32 4
  %12 = load i64, ptr %11, align 8
  %13 = xor i64 %12, -1
  %14 = and i64 %10, %13
  %15 = add i64 %14, 1
  %16 = getelementptr inbounds %class.G1FreeIdSet, ptr %7, i32 0, i32 4
  %17 = load i64, ptr %16, align 8
  %18 = add i64 %15, %17
  %19 = or i64 %9, %18
  ret i64 %19
}