; Function Attrs: mustprogress nofree norecurse nosync nounwind willreturn memory(argmem: read) uwtable
define hidden noundef i64 @_ZNK11G1FreeIdSet9make_headEjm(ptr nocapture noundef nonnull readonly align 8 dereferenceable(64) %0, i32 noundef %1, i64 noundef %2) local_unnamed_addr #2 align 2 {
  %4 = zext i32 %1 to i64
  %5 = getelementptr inbounds i8, ptr %0, i64 48
  %6 = load i64, ptr %5, align 8
  %7 = xor i64 %6, -1
  %8 = and i64 %7, %2
  %9 = add i64 %6, 1
  %10 = add i64 %9, %8
  %11 = or i64 %10, %4
  ret i64 %11
}